; ModuleID = '20/137.c'
source_filename = "20/137.c"
target datalayout = "e-m:e-p270:32:32-p271:32:32-p272:64:64-i64:64-f80:128-n8:16:32:64-S128"
target triple = "x86_64-pc-linux-gnu"

@.str = private unnamed_addr constant [5 x i8] c"%s%s\00", align 1
@.str.1 = private unnamed_addr constant [2 x i8] c"\0A\00", align 1
@.str.2 = private unnamed_addr constant [3 x i8] c"%s\00", align 1

; Function Attrs: noinline nounwind uwtable
define dso_local void @main() #0 {
  %1 = alloca [15 x i8], align 1
  %2 = alloca [4 x i8], align 1
  %3 = alloca i32, align 4
  %4 = alloca i32, align 4
  %5 = alloca i32, align 4
  %6 = alloca i32, align 4
  store i32 0, i32* %3, align 4
  br label %7

7:                                                ; preds = %87, %0
  %8 = getelementptr inbounds [15 x i8], [15 x i8]* %1, i64 0, i64 0
  %9 = getelementptr inbounds [4 x i8], [4 x i8]* %2, i64 0, i64 0
  %10 = call i32 (i8*, ...) @__isoc99_scanf(i8* getelementptr inbounds ([5 x i8], [5 x i8]* @.str, i64 0, i64 0), i8* %8, i8* %9)
  %11 = icmp eq i32 %10, 2
  br i1 %11, label %12, label %90

12:                                               ; preds = %7
  store i32 0, i32* %4, align 4
  %13 = getelementptr inbounds [15 x i8], [15 x i8]* %1, i64 0, i64 0
  %14 = call i64 @strlen(i8* %13) #3
  %15 = trunc i64 %14 to i32
  store i32 %15, i32* %5, align 4
  store i32 0, i32* %6, align 4
  br label %16

16:                                               ; preds = %36, %12
  %17 = load i32, i32* %6, align 4
  %18 = load i32, i32* %5, align 4
  %19 = sub nsw i32 %18, 1
  %20 = icmp sle i32 %17, %19
  br i1 %20, label %21, label %39

21:                                               ; preds = %16
  %22 = load i32, i32* %6, align 4
  %23 = sext i32 %22 to i64
  %24 = getelementptr inbounds [15 x i8], [15 x i8]* %1, i64 0, i64 %23
  %25 = load i8, i8* %24, align 1
  %26 = sext i8 %25 to i32
  %27 = load i32, i32* %4, align 4
  %28 = sext i32 %27 to i64
  %29 = getelementptr inbounds [15 x i8], [15 x i8]* %1, i64 0, i64 %28
  %30 = load i8, i8* %29, align 1
  %31 = sext i8 %30 to i32
  %32 = icmp sgt i32 %26, %31
  br i1 %32, label %33, label %35

33:                                               ; preds = %21
  %34 = load i32, i32* %6, align 4
  store i32 %34, i32* %4, align 4
  br label %35

35:                                               ; preds = %33, %21
  br label %36

36:                                               ; preds = %35
  %37 = load i32, i32* %6, align 4
  %38 = add nsw i32 %37, 1
  store i32 %38, i32* %6, align 4
  br label %16

39:                                               ; preds = %16
  %40 = load i32, i32* %5, align 4
  %41 = sub nsw i32 %40, 1
  store i32 %41, i32* %6, align 4
  br label %42

42:                                               ; preds = %56, %39
  %43 = load i32, i32* %6, align 4
  %44 = load i32, i32* %4, align 4
  %45 = add nsw i32 %44, 1
  %46 = icmp sge i32 %43, %45
  br i1 %46, label %47, label %59

47:                                               ; preds = %42
  %48 = load i32, i32* %6, align 4
  %49 = sext i32 %48 to i64
  %50 = getelementptr inbounds [15 x i8], [15 x i8]* %1, i64 0, i64 %49
  %51 = load i8, i8* %50, align 1
  %52 = load i32, i32* %6, align 4
  %53 = add nsw i32 %52, 3
  %54 = sext i32 %53 to i64
  %55 = getelementptr inbounds [15 x i8], [15 x i8]* %1, i64 0, i64 %54
  store i8 %51, i8* %55, align 1
  br label %56

56:                                               ; preds = %47
  %57 = load i32, i32* %6, align 4
  %58 = add nsw i32 %57, -1
  store i32 %58, i32* %6, align 4
  br label %42

59:                                               ; preds = %42
  %60 = load i32, i32* %5, align 4
  %61 = add nsw i32 %60, 3
  %62 = sext i32 %61 to i64
  %63 = getelementptr inbounds [15 x i8], [15 x i8]* %1, i64 0, i64 %62
  store i8 0, i8* %63, align 1
  store i32 0, i32* %6, align 4
  br label %64

64:                                               ; preds = %78, %59
  %65 = load i32, i32* %6, align 4
  %66 = icmp sle i32 %65, 2
  br i1 %66, label %67, label %81

67:                                               ; preds = %64
  %68 = load i32, i32* %6, align 4
  %69 = sext i32 %68 to i64
  %70 = getelementptr inbounds [4 x i8], [4 x i8]* %2, i64 0, i64 %69
  %71 = load i8, i8* %70, align 1
  %72 = load i32, i32* %4, align 4
  %73 = add nsw i32 %72, 1
  %74 = load i32, i32* %6, align 4
  %75 = add nsw i32 %73, %74
  %76 = sext i32 %75 to i64
  %77 = getelementptr inbounds [15 x i8], [15 x i8]* %1, i64 0, i64 %76
  store i8 %71, i8* %77, align 1
  br label %78

78:                                               ; preds = %67
  %79 = load i32, i32* %6, align 4
  %80 = add nsw i32 %79, 1
  store i32 %80, i32* %6, align 4
  br label %64

81:                                               ; preds = %64
  %82 = load i32, i32* %3, align 4
  %83 = icmp ne i32 %82, 0
  br i1 %83, label %84, label %86

84:                                               ; preds = %81
  %85 = call i32 (i8*, ...) @printf(i8* getelementptr inbounds ([2 x i8], [2 x i8]* @.str.1, i64 0, i64 0))
  br label %87

86:                                               ; preds = %81
  store i32 1, i32* %3, align 4
  br label %87

87:                                               ; preds = %86, %84
  %88 = getelementptr inbounds [15 x i8], [15 x i8]* %1, i64 0, i64 0
  %89 = call i32 (i8*, ...) @printf(i8* getelementptr inbounds ([3 x i8], [3 x i8]* @.str.2, i64 0, i64 0), i8* %88)
  br label %7

90:                                               ; preds = %7
  ret void
}

declare dso_local i32 @__isoc99_scanf(i8*, ...) #1

; Function Attrs: nounwind readonly
declare dso_local i64 @strlen(i8*) #2

declare dso_local i32 @printf(i8*, ...) #1


!llvm.module.flags = !{!0}
!llvm.ident = !{!1}

!0 = !{i32 1, !"wchar_size", i32 4}
!1 = !{!"clang version 10.0.0-4ubuntu1 "}
